target datalayout = "e-m:e-p270:32:32-p271:32:32-p272:64:64-i64:64-i128:128-f80:128-n8:16:32:64-S128"
target triple = "x86_64-unknown-linux-gnu"

%"class.node::MemoryRetainer" = type { ptr }
%"struct.node::quic::TransportParams::Options" = type <{ %"class.node::MemoryRetainer", %"class.std::optional.315", %"class.std::optional.315", i64, i64, i64, i64, i64, i64, i64, i64, i64, i64, i64, i8, [7 x i8] }>
%"class.std::optional.315" = type { %"struct.std::_Optional_base.316" }
%"struct.std::_Optional_base.316" = type { %"struct.std::_Optional_payload.318" }
%"struct.std::_Optional_payload.318" = type { %"struct.std::_Optional_payload.base", [7 x i8] }
%"struct.std::_Optional_payload.base" = type { %"struct.std::_Optional_payload_base.base" }
%"struct.std::_Optional_payload_base.base" = type <{ %"union.std::_Optional_payload_base<node::SocketAddress>::_Storage", i8 }>
%"union.std::_Optional_payload_base<node::SocketAddress>::_Storage" = type { %"class.node::SocketAddress" }
%"class.node::SocketAddress" = type { %"class.node::MemoryRetainer", %struct.sockaddr_storage }
%struct.sockaddr_storage = type { i16, [118 x i8], i64 }
%"struct.node::quic::TLSContext::Options" = type { %"class.node::MemoryRetainer", %"class.std::__cxx11::basic_string", %"class.std::__cxx11::basic_string", i8, i8, i8, i8, i8, %"class.std::__cxx11::basic_string", %"class.std::__cxx11::basic_string", %"class.std::__cxx11::basic_string", %"class.std::vector.322", %"class.std::vector.327", %"class.std::vector.327", %"class.std::vector.327" }
%"class.std::__cxx11::basic_string" = type { %"struct.std::__cxx11::basic_string<char>::_Alloc_hider", i64, %union.anon.138 }
%"struct.std::__cxx11::basic_string<char>::_Alloc_hider" = type { ptr }
%union.anon.138 = type { i64, [8 x i8] }
%"class.std::vector.322" = type { %"struct.std::_Vector_base.323" }
%"struct.std::_Vector_base.323" = type { %"struct.std::_Vector_base<std::shared_ptr<node::crypto::KeyObjectData>, std::allocator<std::shared_ptr<node::crypto::KeyObjectData>>>::_Vector_impl" }
%"struct.std::_Vector_base<std::shared_ptr<node::crypto::KeyObjectData>, std::allocator<std::shared_ptr<node::crypto::KeyObjectData>>>::_Vector_impl" = type { %"struct.std::_Vector_base<std::shared_ptr<node::crypto::KeyObjectData>, std::allocator<std::shared_ptr<node::crypto::KeyObjectData>>>::_Vector_impl_data" }
%"struct.std::_Vector_base<std::shared_ptr<node::crypto::KeyObjectData>, std::allocator<std::shared_ptr<node::crypto::KeyObjectData>>>::_Vector_impl_data" = type { ptr, ptr, ptr }
%"class.std::vector.327" = type { %"struct.std::_Vector_base.328" }
%"struct.std::_Vector_base.328" = type { %"struct.std::_Vector_base<node::quic::Store, std::allocator<node::quic::Store>>::_Vector_impl" }
%"struct.std::_Vector_base<node::quic::Store, std::allocator<node::quic::Store>>::_Vector_impl" = type { %"struct.std::_Vector_base<node::quic::Store, std::allocator<node::quic::Store>>::_Vector_impl_data" }
%"struct.std::_Vector_base<node::quic::Store, std::allocator<node::quic::Store>>::_Vector_impl_data" = type { ptr, ptr, ptr }
%"struct.node::quic::Session::Application_Options" = type { %"class.node::MemoryRetainer", i64, i64, i64, i64, i64, i64 }
%"struct.node::quic::Endpoint::Options" = type <{ %"class.node::MemoryRetainer", %"class.node::SocketAddress", i64, i64, i64, i64, i64, i64, i64, i64, i64, i8, i8, [2 x i8], i32, %"class.node::quic::TokenSecret", %"class.node::quic::TokenSecret", i8, [3 x i8], i32, i32, i8, [3 x i8] }>
%"class.node::quic::TokenSecret" = type { %"class.node::MemoryRetainer", [16 x i8] }
%"class.v8::IndirectHandleBase" = type { ptr }
%"class.std::shared_ptr.308" = type { %"class.std::__shared_ptr.309" }
%"class.std::__shared_ptr.309" = type { ptr, %"class.std::__shared_count" }
%"class.std::__shared_count" = type { ptr }
%"class.node::quic::Endpoint::UDP" = type <{ %"class.node::MemoryRetainer", %"class.node::BaseObjectPtrImpl", i8, i8, [6 x i8] }>
%"class.node::BaseObjectPtrImpl" = type { %union.anon }
%union.anon = type { ptr }
%"class.node::BaseObject" = type { %"class.node::MemoryRetainer", %"class.v8::Global", ptr, ptr }
%"class.v8::Global" = type { %"class.v8::PersistentBase" }
%"class.v8::PersistentBase" = type { %"class.v8::IndirectHandleBase" }
%"struct.std::__detail::_Hash_node_base" = type { ptr }
%"struct.std::__detail::_Prime_rehash_policy" = type { float, i64 }
%"struct.std::__detail::_List_node_header" = type { %"struct.std::__detail::_List_node_base", i64 }
%"struct.std::__detail::_List_node_base" = type { ptr, ptr }
%"class.v8::Global.7" = type { %"class.v8::PersistentBase.8" }
%"class.v8::PersistentBase.8" = type { %"class.v8::IndirectHandleBase" }
%"class.std::vector.153" = type { %"struct.std::_Vector_base.154" }
%"struct.std::_Vector_base.154" = type { %"struct.std::_Vector_base<std::__cxx11::basic_string<char>, std::allocator<std::__cxx11::basic_string<char>>>::_Vector_impl" }
%"struct.std::_Vector_base<std::__cxx11::basic_string<char>, std::allocator<std::__cxx11::basic_string<char>>>::_Vector_impl" = type { %"struct.std::_Vector_base<std::__cxx11::basic_string<char>, std::allocator<std::__cxx11::basic_string<char>>>::_Vector_impl_data" }
%"struct.std::_Vector_base<std::__cxx11::basic_string<char>, std::allocator<std::__cxx11::basic_string<char>>>::_Vector_impl_data" = type { ptr, ptr, ptr }
%"class.node::CleanupQueue" = type { %"class.node::MemoryRetainer", %"class.std::unordered_set.241", i64 }
%"class.std::unordered_set.241" = type { %"class.std::_Hashtable.242" }
%"class.std::_Hashtable.242" = type { ptr, i64, %"struct.std::__detail::_Hash_node_base", i64, %"struct.std::__detail::_Prime_rehash_policy", ptr }
%"class.node::AsyncWrap" = type { %"class.node::BaseObject", i32, i8, double, double }
%"struct.node::quic::Session::Options" = type <{ %"class.node::MemoryRetainer", i32, i32, i32, [4 x i8], %"struct.node::quic::TransportParams::Options", %"struct.node::quic::TLSContext::Options", %"struct.node::quic::Session::Application_Options", ptr, %"class.node::BaseObjectPtrImpl.332", i8, [7 x i8] }>
%"class.node::BaseObjectPtrImpl.332" = type { %union.anon.333 }
%union.anon.333 = type { ptr }
%"class.node::quic::Endpoint" = type { %"class.node::AsyncWrap", %"class.node::quic::Packet::Listener", %"class.node::AliasedStruct", %"class.node::AliasedStruct.313", %"struct.node::quic::Endpoint::Options", %"class.node::quic::Endpoint::UDP", %"class.std::optional", %"class.std::unordered_map.338", %"class.std::unordered_map.356", %"class.std::unordered_map.370", %"class.node::SocketAddressLRU", i32, i32 }
%"class.node::quic::Packet::Listener" = type { ptr }
%"class.node::AliasedStruct" = type { ptr, %"class.std::shared_ptr.308", ptr, %"class.v8::Global.311" }
%"class.v8::Global.311" = type { %"class.v8::PersistentBase.312" }
%"class.v8::PersistentBase.312" = type { %"class.v8::IndirectHandleBase" }
%"class.node::AliasedStruct.313" = type { ptr, %"class.std::shared_ptr.308", ptr, %"class.v8::Global.311" }
%"class.std::optional" = type { %"struct.std::_Optional_base" }
%"struct.std::_Optional_base" = type { %"struct.std::_Optional_payload" }
%"struct.std::_Optional_payload" = type { %"struct.std::_Optional_payload.base.335", [7 x i8] }
%"struct.std::_Optional_payload.base.335" = type { %"struct.std::_Optional_payload_base.base.334" }
%"struct.std::_Optional_payload_base.base.334" = type { %"union.std::_Optional_payload_base<node::quic::Session::Options>::_Storage", i8 }
%"union.std::_Optional_payload_base<node::quic::Session::Options>::_Storage" = type { %"struct.node::quic::Session::Options" }
%"class.std::unordered_map.338" = type { %"class.std::_Hashtable.339" }
%"class.std::_Hashtable.339" = type { %"struct.std::__detail::_Hashtable_base.340", ptr, i64, %"struct.std::__detail::_Hash_node_base", i64, %"struct.std::__detail::_Prime_rehash_policy", ptr }
%"struct.std::__detail::_Hashtable_base.340" = type { %"struct.std::__detail::_Hash_code_base.341" }
%"struct.std::__detail::_Hash_code_base.341" = type { %"struct.std::__detail::_Hashtable_ebo_helper.342" }
%"struct.std::__detail::_Hashtable_ebo_helper.342" = type { %"struct.node::quic::CID::Hash" }
%"struct.node::quic::CID::Hash" = type { i8 }
%"class.std::unordered_map.356" = type { %"class.std::_Hashtable.357" }
%"class.std::_Hashtable.357" = type { %"struct.std::__detail::_Hashtable_base.358", ptr, i64, %"struct.std::__detail::_Hash_node_base", i64, %"struct.std::__detail::_Prime_rehash_policy", ptr }
%"struct.std::__detail::_Hashtable_base.358" = type { %"struct.std::__detail::_Hash_code_base.359" }
%"struct.std::__detail::_Hash_code_base.359" = type { %"struct.std::__detail::_Hashtable_ebo_helper.342" }
%"class.std::unordered_map.370" = type { %"class.std::_Hashtable.371" }
%"class.std::_Hashtable.371" = type { ptr, i64, %"struct.std::__detail::_Hash_node_base", i64, %"struct.std::__detail::_Prime_rehash_policy", ptr }
%"class.node::SocketAddressLRU" = type { %"class.node::MemoryRetainer", %"class.std::__cxx11::list.388", %"class.std::unordered_map.393", i64 }
%"class.std::__cxx11::list.388" = type { %"class.std::__cxx11::_List_base.389" }
%"class.std::__cxx11::_List_base.389" = type { %"struct.std::__cxx11::_List_base<std::pair<node::SocketAddress, node::quic::Endpoint::SocketAddressInfoTraits::Type>, std::allocator<std::pair<node::SocketAddress, node::quic::Endpoint::SocketAddressInfoTraits::Type>>>::_List_impl" }
%"struct.std::__cxx11::_List_base<std::pair<node::SocketAddress, node::quic::Endpoint::SocketAddressInfoTraits::Type>, std::allocator<std::pair<node::SocketAddress, node::quic::Endpoint::SocketAddressInfoTraits::Type>>>::_List_impl" = type { %"struct.std::__detail::_List_node_header" }
%"class.std::unordered_map.393" = type { %"class.std::_Hashtable.394" }
%"class.std::_Hashtable.394" = type { ptr, i64, %"struct.std::__detail::_Hash_node_base", i64, %"struct.std::__detail::_Prime_rehash_policy", ptr }
%"class.node::BaseObjectPtrImpl.412" = type { %union.anon.413 }
%union.anon.413 = type { ptr }
%"class.node::Realm" = type { %"class.node::MemoryRetainer", %"class.std::set", %"class.std::set.628", %"class.std::set.628", %"class.std::vector.153", ptr, ptr, %"class.v8::Global.636", %"class.v8::Global.7", %"class.v8::Global.7", %"class.v8::Global.7", %"class.v8::Global", %"class.v8::Global.7", %"class.v8::Global.7", %"class.v8::Global.7", %"class.v8::Global", %"class.v8::Global.7", %"class.v8::Global.7", %"class.v8::Global.7", %"class.v8::Global.7", %"class.v8::Global.7", %"class.v8::Global.7", %"class.v8::Global.7", %"class.v8::Global.7", %"class.v8::Global.7", %"class.v8::Global.7", %"class.v8::Global.7", %"class.v8::Global.7", %"class.v8::Global.7", %"class.v8::Global.7", %"class.v8::Global.7", %"class.v8::Global.7", %"class.v8::Global.7", %"class.v8::Global.7", %"class.v8::Global.7", %"class.v8::Global.7", %"class.v8::Global.7", %"class.v8::Global.7", %"class.v8::Global.7", %"class.v8::Global.7", %"class.v8::Global.7", %"class.v8::Global.7", %"class.v8::Global.7", %"class.v8::Global.7", %"class.v8::Global", %"class.v8::Global.7", %"class.v8::Global.7", %"class.v8::Global.7", %"class.v8::Global", %"class.v8::Global", %"class.v8::Global", %"class.v8::Global", %"class.v8::Global", %"class.v8::Global", %"class.v8::Global.7", %"class.v8::Global.7", %"class.v8::Global.7", %"class.v8::Global.7", %"class.v8::Global.7", %"class.v8::Global.7", %"class.v8::Global.7", %"class.v8::Global.7", %"class.v8::Global.7", %"class.v8::Global.7", %"class.v8::Global.7", %"class.v8::Global.7", %"class.v8::Global.7", %"class.v8::Global.7", i32, i8, i64, i64, %"struct.std::array.638", %"class.node::CleanupQueue" }
%"class.std::set" = type { %"class.std::_Rb_tree" }
%"class.std::_Rb_tree" = type { %"struct.std::_Rb_tree<node::node_module *, node::node_module *, std::_Identity<node::node_module *>, std::less<node::node_module *>>::_Rb_tree_impl" }
%"struct.std::_Rb_tree<node::node_module *, node::node_module *, std::_Identity<node::node_module *>, std::less<node::node_module *>>::_Rb_tree_impl" = type { %"struct.std::_Rb_tree_key_compare", %"struct.std::_Rb_tree_header" }
%"struct.std::_Rb_tree_key_compare" = type { %"struct.std::less" }
%"struct.std::less" = type { i8 }
%"struct.std::_Rb_tree_header" = type { %"struct.std::_Rb_tree_node_base", i64 }
%"struct.std::_Rb_tree_node_base" = type { i32, ptr, ptr, ptr }
%"class.std::set.628" = type { %"class.std::_Rb_tree.629" }
%"class.std::_Rb_tree.629" = type { %"struct.std::_Rb_tree<std::__cxx11::basic_string<char>, std::__cxx11::basic_string<char>, std::_Identity<std::__cxx11::basic_string<char>>, std::less<std::__cxx11::basic_string<char>>>::_Rb_tree_impl" }
%"struct.std::_Rb_tree<std::__cxx11::basic_string<char>, std::__cxx11::basic_string<char>, std::_Identity<std::__cxx11::basic_string<char>>, std::less<std::__cxx11::basic_string<char>>>::_Rb_tree_impl" = type { %"struct.std::_Rb_tree_key_compare.633", %"struct.std::_Rb_tree_header" }
%"struct.std::_Rb_tree_key_compare.633" = type { %"struct.std::less.634" }
%"struct.std::less.634" = type { i8 }
%"class.v8::Global.636" = type { %"class.v8::PersistentBase.637" }
%"class.v8::PersistentBase.637" = type { %"class.v8::IndirectHandleBase" }
%"struct.std::array.638" = type { [12 x %"class.node::BaseObjectPtrImpl.639"] }
%"class.node::BaseObjectPtrImpl.639" = type { %union.anon.640 }
%union.anon.640 = type { ptr }

; Function Attrs: mustprogress nounwind uwtable
define linkonce_odr dso_local noundef ptr @_ZNK4node17BaseObjectPtrImplINS_4quic6PacketELb0EE15get_base_objectEv(ptr noundef nonnull align 8 dereferenceable(8) %this) #4 comdat align 2 {
entry:
  %this.addr = alloca ptr, align 8
  store ptr %this, ptr %this.addr, align 8
  %this1 = load ptr, ptr %this.addr, align 8
  %data_ = getelementptr inbounds %"class.node::BaseObjectPtrImpl.412", ptr %this1, i32 0, i32 0
  %0 = load ptr, ptr %data_, align 8
  ret ptr %0
}

; Function Attrs: mustprogress nounwind uwtable
define linkonce_odr dso_local noundef ptr @_ZNK4node17BaseObjectPtrImplINS_4quic6PacketELb0EE3getEv(ptr noundef nonnull align 8 dereferenceable(8) %this) #4 comdat align 2 {
entry:
  %this.addr = alloca ptr, align 8
  store ptr %this, ptr %this.addr, align 8
  %this1 = load ptr, ptr %this.addr, align 8
  %call = call noundef ptr @_ZNK4node17BaseObjectPtrImplINS_4quic6PacketELb0EE15get_base_objectEv(ptr noundef nonnull align 8 dereferenceable(8) %this1)
  ret ptr %call
}

; Function Attrs: mustprogress nounwind uwtable
define linkonce_odr dso_local noundef ptr @_ZNK4node5Realm3envEv(ptr noundef nonnull align 8 dereferenceable(872) %this) #4 comdat align 2 {
entry:
  %this.addr = alloca ptr, align 8
  store ptr %this, ptr %this.addr, align 8
  %this1 = load ptr, ptr %this.addr, align 8
  %env_ = getelementptr inbounds %"class.node::Realm", ptr %this1, i32 0, i32 5
  %0 = load ptr, ptr %env_, align 8
  ret ptr %0
}

; Function Attrs: mustprogress nounwind uwtable
define linkonce_odr dso_local void @_ZN4node17BaseObjectPtrImplINS_4quic6PacketELb0EED2Ev(ptr noundef nonnull align 8 dereferenceable(8) %this) unnamed_addr #4 comdat align 2 {
entry:
  %this.addr = alloca ptr, align 8
  store ptr %this, ptr %this.addr, align 8
  %this1 = load ptr, ptr %this.addr, align 8
  %call = call noundef ptr @_ZNK4node17BaseObjectPtrImplINS_4quic6PacketELb0EE3getEv(ptr noundef nonnull align 8 dereferenceable(8) %this1)
  %cmp = icmp ne ptr %call, null
  br i1 %cmp, label %if.then, label %if.end

if.then:                                          ; preds = %entry
  %call2 = call noundef ptr @_ZNK4node17BaseObjectPtrImplINS_4quic6PacketELb0EE3getEv(ptr noundef nonnull align 8 dereferenceable(8) %this1)
  call void @_ZN4node10BaseObject17decrease_refcountEv(ptr noundef nonnull align 8 dereferenceable(32) %call2)
  br label %if.end

if.end:                                           ; preds = %if.then, %entry
  ret void
}

; Function Attrs: mustprogress nounwind uwtable
define linkonce_odr dso_local void @_ZN4node17BaseObjectPtrImplINS_4quic6PacketELb0EEC2EOS3_(ptr noundef nonnull align 8 dereferenceable(8) %this, ptr noundef nonnull align 8 dereferenceable(8) %other) unnamed_addr #4 comdat align 2 {
entry:
  %this.addr = alloca ptr, align 8
  %other.addr = alloca ptr, align 8
  store ptr %this, ptr %this.addr, align 8
  store ptr %other, ptr %other.addr, align 8
  %this1 = load ptr, ptr %this.addr, align 8
  %data_ = getelementptr inbounds %"class.node::BaseObjectPtrImpl.412", ptr %this1, i32 0, i32 0
  %0 = load ptr, ptr %other.addr, align 8
  %data_2 = getelementptr inbounds %"class.node::BaseObjectPtrImpl.412", ptr %0, i32 0, i32 0
  call void @llvm.memcpy.p0.p0.i64(ptr align 8 %data_, ptr align 8 %data_2, i64 8, i1 false)
  %1 = load ptr, ptr %other.addr, align 8
  %data_3 = getelementptr inbounds %"class.node::BaseObjectPtrImpl.412", ptr %1, i32 0, i32 0
  store ptr null, ptr %data_3, align 8
  ret void
}

; Function Attrs: mustprogress nounwind uwtable
define linkonce_odr dso_local void @_ZN4node4quic13IncrementStatINS0_8Endpoint5StatsETnMT_mXadL_ZNS3_25version_negotiation_countEEEEEvPS4_m(ptr noundef %stats, i64 noundef %amt) #4 comdat {
entry:
  %stats.addr = alloca ptr, align 8
  %amt.addr = alloca i64, align 8
  store ptr %stats, ptr %stats.addr, align 8
  store i64 %amt, ptr %amt.addr, align 8
  %0 = load i64, ptr %amt.addr, align 8
  %1 = load ptr, ptr %stats.addr, align 8
  %memptr.offset = getelementptr inbounds i8, ptr %1, i64 80
  %2 = load i64, ptr %memptr.offset, align 8
  %add = add i64 %2, %0
  store i64 %add, ptr %memptr.offset, align 8
  ret void
}

; Function Attrs: mustprogress nounwind uwtable
define linkonce_odr dso_local noundef ptr @_ZN4node13AliasedStructINS_4quic8Endpoint5StatsEE4DataEv(ptr noundef nonnull align 8 dereferenceable(40) %this) #4 comdat align 2 {
entry:
  %this.addr = alloca ptr, align 8
  store ptr %this, ptr %this.addr, align 8
  %this1 = load ptr, ptr %this.addr, align 8
  %ptr_ = getelementptr inbounds %"class.node::AliasedStruct", ptr %this1, i32 0, i32 2
  %0 = load ptr, ptr %ptr_, align 8
  ret ptr %0
}

; Function Attrs: mustprogress nounwind uwtable
define linkonce_odr dso_local noundef zeroext i1 @_ZNK4node17BaseObjectPtrImplINS_4quic6PacketELb0EEcvbEv(ptr noundef nonnull align 8 dereferenceable(8) %this) #4 comdat align 2 {
entry:
  %this.addr = alloca ptr, align 8
  store ptr %this, ptr %this.addr, align 8
  %this1 = load ptr, ptr %this.addr, align 8
  %call = call noundef ptr @_ZNK4node17BaseObjectPtrImplINS_4quic6PacketELb0EE3getEv(ptr noundef nonnull align 8 dereferenceable(8) %this1)
  %cmp = icmp ne ptr %call, null
  ret i1 %cmp
}

; Function Attrs: mustprogress nounwind uwtable
define linkonce_odr dso_local noundef ptr @_ZNK4node10BaseObject3envEv(ptr noundef nonnull align 8 dereferenceable(32) %this) #4 comdat align 2 {
entry:
  %this.addr = alloca ptr, align 8
  store ptr %this, ptr %this.addr, align 8
  %this1 = load ptr, ptr %this.addr, align 8
  %realm_ = getelementptr inbounds %"class.node::BaseObject", ptr %this1, i32 0, i32 2
  %0 = load ptr, ptr %realm_, align 8
  %call = call noundef ptr @_ZNK4node5Realm3envEv(ptr noundef nonnull align 8 dereferenceable(872) %0)
  ret ptr %call
}

; Function Attrs: mustprogress nounwind uwtable
define dso_local void @_ZN4node4quic8Endpoint22SendVersionNegotiationERKNS0_14PathDescriptorE(ptr noundef nonnull align 8 dereferenceable(1520) %this, ptr noundef nonnull align 8 dereferenceable(40) %options) #4 align 2 {
entry:
  %this.addr = alloca ptr, align 8
  %options.addr = alloca ptr, align 8
  %packet = alloca %"class.node::BaseObjectPtrImpl.412", align 8
  %agg.tmp = alloca %"class.node::BaseObjectPtrImpl.412", align 8
  store ptr %this, ptr %this.addr, align 8
  store ptr %options, ptr %options.addr, align 8
  %this1 = load ptr, ptr %this.addr, align 8
  %call = call noundef ptr @_ZNK4node10BaseObject3envEv(ptr noundef nonnull align 8 dereferenceable(32) %this1)
  %add.ptr = getelementptr inbounds i8, ptr %this1, i64 56
  %0 = load ptr, ptr %options.addr, align 8
  call void @_ZN4node4quic6Packet30CreateVersionNegotiationPacketEPNS_11EnvironmentEPNS1_8ListenerERKNS0_14PathDescriptorE(ptr sret(%"class.node::BaseObjectPtrImpl.412") align 8 %packet, ptr noundef %call, ptr noundef %add.ptr, ptr noundef nonnull align 8 dereferenceable(40) %0)
  %call2 = call noundef zeroext i1 @_ZNK4node17BaseObjectPtrImplINS_4quic6PacketELb0EEcvbEv(ptr noundef nonnull align 8 dereferenceable(8) %packet)
  br i1 %call2, label %if.then, label %if.end

if.then:                                          ; preds = %entry
  %stats_ = getelementptr inbounds %"class.node::quic::Endpoint", ptr %this1, i32 0, i32 2
  %call3 = call noundef ptr @_ZN4node13AliasedStructINS_4quic8Endpoint5StatsEE4DataEv(ptr noundef nonnull align 8 dereferenceable(40) %stats_)
  call void @_ZN4node4quic13IncrementStatINS0_8Endpoint5StatsETnMT_mXadL_ZNS3_25version_negotiation_countEEEEEvPS4_m(ptr noundef %call3, i64 noundef 1)
  call void @_ZN4node17BaseObjectPtrImplINS_4quic6PacketELb0EEC2EOS3_(ptr noundef nonnull align 8 dereferenceable(8) %agg.tmp, ptr noundef nonnull align 8 dereferenceable(8) %packet)
  call void @_ZN4node4quic8Endpoint4SendENS_17BaseObjectPtrImplINS0_6PacketELb0EEE(ptr noundef nonnull align 8 dereferenceable(1520) %this1, ptr noundef %agg.tmp)
  call void @_ZN4node17BaseObjectPtrImplINS_4quic6PacketELb0EED2Ev(ptr noundef nonnull align 8 dereferenceable(8) %agg.tmp) #3
  br label %if.end

if.end:                                           ; preds = %if.then, %entry
  call void @_ZN4node17BaseObjectPtrImplINS_4quic6PacketELb0EED2Ev(ptr noundef nonnull align 8 dereferenceable(8) %packet) #3
  ret void
}